EXPORTS 
	??_R0?AVFindPeaksBody@human_pose_estimation@@@8 	 DATA
	??_R0?AVParallelLoopBody@cv@@@8 	 DATA
	??_R0?AVexception@std@@@8 	 DATA
	??_R0?AVruntime_error@std@@@8 	 DATA
	?method_table@@3PAUPyMethodDef@@A 	 DATA
	?pose_extractor_module@@3UPyModuleDef@@A 	 DATA
	??$_Construct@PEBU?$pair@HH@std@@@?$vector@U?$pair@HH@std@@V?$allocator@U?$pair@HH@std@@@2@@std@@QEAAXPEBU?$pair@HH@1@0Uforward_iterator_tag@1@@Z
	??$_Destroy_range1@V?$allocator@UHumanPose@human_pose_estimation@@@std@@PEAUHumanPose@human_pose_estimation@@@std@@YAXPEAUHumanPose@human_pose_estimation@@0AEAU?$_Wrap_alloc@V?$allocator@UHumanPose@human_pose_estimation@@@std@@@0@U?$integral_constant@_N$0A@@0@@Z
	??$_Destroy_range1@V?$allocator@UHumanPoseByPeaksIndices@human_pose_estimation@@@std@@PEAUHumanPoseByPeaksIndices@human_pose_estimation@@@std@@YAXPEAUHumanPoseByPeaksIndices@human_pose_estimation@@0AEAU?$_Wrap_alloc@V?$allocator@UHumanPoseByPeaksIndices@human_pose_estimation@@@std@@@0@U?$integral_constant@_N$0A@@0@@Z
	??$_Destroy_range1@V?$allocator@V?$vector@UPeak@human_pose_estimation@@V?$allocator@UPeak@human_pose_estimation@@@std@@@std@@@std@@PEAV?$vector@UPeak@human_pose_estimation@@V?$allocator@UPeak@human_pose_estimation@@@std@@@2@@std@@YAXPEAV?$vector@UPeak@human_pose_estimation@@V?$allocator@UPeak@human_pose_estimation@@@std@@@0@0AEAU?$_Wrap_alloc@V?$allocator@V?$vector@UPeak@human_pose_estimation@@V?$allocator@UPeak@human_pose_estimation@@@std@@@std@@@std@@@0@U?$integral_constant@_N$0A@@0@@Z
	??$_Destroy_range1@V?$allocator@VMat@cv@@@std@@PEAVMat@cv@@@std@@YAXPEAVMat@cv@@0AEAU?$_Wrap_alloc@V?$allocator@VMat@cv@@@std@@@0@U?$integral_constant@_N$0A@@0@@Z
	??$_Guess_median_unchecked@PEAUTwoJointsConnection@human_pose_estimation@@V<lambda_594d65040595c336488aaddff57d434a>@@@std@@YAXPEAUTwoJointsConnection@human_pose_estimation@@00AEAV<lambda_594d65040595c336488aaddff57d434a>@@@Z
	??$_Guess_median_unchecked@PEAV?$Point_@H@cv@@V<lambda_1a37db93105ca10ddad3063fe3e15f4f>@@@std@@YAXPEAV?$Point_@H@cv@@00AEAV<lambda_1a37db93105ca10ddad3063fe3e15f4f>@@@Z
	??$_Insert@V?$_Vector_const_iterator@V?$_Vector_val@U?$_Simple_types@UPeak@human_pose_estimation@@@std@@@std@@@std@@@?$vector@UPeak@human_pose_estimation@@V?$allocator@UPeak@human_pose_estimation@@@std@@@std@@QEAAXV?$_Vector_const_iterator@V?$_Vector_val@U?$_Simple_types@UPeak@human_pose_estimation@@@std@@@std@@@1@00Uforward_iterator_tag@1@@Z
	??$_Insertion_sort_unchecked@PEAUTwoJointsConnection@human_pose_estimation@@V<lambda_594d65040595c336488aaddff57d434a>@@@std@@YAXPEAUTwoJointsConnection@human_pose_estimation@@0AEAV<lambda_594d65040595c336488aaddff57d434a>@@@Z
	??$_Insertion_sort_unchecked@PEAV?$Point_@H@cv@@V<lambda_1a37db93105ca10ddad3063fe3e15f4f>@@@std@@YAXPEAV?$Point_@H@cv@@0AEAV<lambda_1a37db93105ca10ddad3063fe3e15f4f>@@@Z
	??$_Make_heap_unchecked@PEAUTwoJointsConnection@human_pose_estimation@@V<lambda_594d65040595c336488aaddff57d434a>@@@std@@YAXPEAUTwoJointsConnection@human_pose_estimation@@0AEAV<lambda_594d65040595c336488aaddff57d434a>@@@Z
	??$_Make_heap_unchecked@PEAV?$Point_@H@cv@@V<lambda_1a37db93105ca10ddad3063fe3e15f4f>@@@std@@YAXPEAV?$Point_@H@cv@@0AEAV<lambda_1a37db93105ca10ddad3063fe3e15f4f>@@@Z
	??$_Med3_unchecked@PEAUTwoJointsConnection@human_pose_estimation@@V<lambda_594d65040595c336488aaddff57d434a>@@@std@@YAXPEAUTwoJointsConnection@human_pose_estimation@@00AEAV<lambda_594d65040595c336488aaddff57d434a>@@@Z
	??$_Partition_by_median_guess_unchecked@PEAUTwoJointsConnection@human_pose_estimation@@V<lambda_594d65040595c336488aaddff57d434a>@@@std@@YA?AU?$pair@PEAUTwoJointsConnection@human_pose_estimation@@PEAU12@@0@PEAUTwoJointsConnection@human_pose_estimation@@0AEAV<lambda_594d65040595c336488aaddff57d434a>@@@Z
	??$_Partition_by_median_guess_unchecked@PEAV?$Point_@H@cv@@V<lambda_1a37db93105ca10ddad3063fe3e15f4f>@@@std@@YA?AU?$pair@PEAV?$Point_@H@cv@@PEAV12@@0@PEAV?$Point_@H@cv@@0AEAV<lambda_1a37db93105ca10ddad3063fe3e15f4f>@@@Z
	??$_Pop_heap_hole_by_index@PEAUTwoJointsConnection@human_pose_estimation@@_JU12@V<lambda_594d65040595c336488aaddff57d434a>@@@std@@YAXPEAUTwoJointsConnection@human_pose_estimation@@_J1$$QEAU12@AEAV<lambda_594d65040595c336488aaddff57d434a>@@@Z
	??$_Pop_heap_hole_by_index@PEAV?$Point_@H@cv@@_JV12@V<lambda_1a37db93105ca10ddad3063fe3e15f4f>@@@std@@YAXPEAV?$Point_@H@cv@@_J1$$QEAV12@AEAV<lambda_1a37db93105ca10ddad3063fe3e15f4f>@@@Z
	??$_Reverse_unchecked@PEAUPeak@human_pose_estimation@@@std@@YAXPEAUPeak@human_pose_estimation@@0@Z
	??$_Rotate_unchecked@PEAUPeak@human_pose_estimation@@@std@@YAPEAUPeak@human_pose_estimation@@PEAU12@00@Z
	??$_Sort_heap_unchecked@PEAUTwoJointsConnection@human_pose_estimation@@V<lambda_594d65040595c336488aaddff57d434a>@@@std@@YAXPEAUTwoJointsConnection@human_pose_estimation@@0AEAV<lambda_594d65040595c336488aaddff57d434a>@@@Z
	??$_Sort_heap_unchecked@PEAV?$Point_@H@cv@@V<lambda_1a37db93105ca10ddad3063fe3e15f4f>@@@std@@YAXPEAV?$Point_@H@cv@@0AEAV<lambda_1a37db93105ca10ddad3063fe3e15f4f>@@@Z
	??$_Sort_unchecked1@PEAUTwoJointsConnection@human_pose_estimation@@_JV<lambda_594d65040595c336488aaddff57d434a>@@@std@@YAXPEAUTwoJointsConnection@human_pose_estimation@@0_JAEAV<lambda_594d65040595c336488aaddff57d434a>@@@Z
	??$_Sort_unchecked1@PEAV?$Point_@H@cv@@_JV<lambda_1a37db93105ca10ddad3063fe3e15f4f>@@@std@@YAXPEAV?$Point_@H@cv@@0_JAEAV<lambda_1a37db93105ca10ddad3063fe3e15f4f>@@@Z
	??$_Uninit_alloc_fill_n1@PEAH_KV?$allocator@H@std@@@std@@YAXPEAH_KPEBHAEAU?$_Wrap_alloc@V?$allocator@H@std@@@0@U?$integral_constant@_N$0A@@0@@Z
	??$_Uninit_alloc_fill_n1@PEAI_KV?$allocator@I@std@@@std@@YAXPEAI_KPEBIAEAU?$_Wrap_alloc@V?$allocator@I@std@@@0@U?$integral_constant@_N$0A@@0@@Z
	??$_Uninit_alloc_fill_n1@PEAUHumanPoseByPeaksIndices@human_pose_estimation@@_KV?$allocator@UHumanPoseByPeaksIndices@human_pose_estimation@@@std@@@std@@YAXPEAUHumanPoseByPeaksIndices@human_pose_estimation@@_KPEBU12@AEAU?$_Wrap_alloc@V?$allocator@UHumanPoseByPeaksIndices@human_pose_estimation@@@std@@@0@U?$integral_constant@_N$0A@@0@@Z
	??$_Uninit_alloc_fill_n1@PEAV?$Point3_@M@cv@@_KV?$allocator@V?$Point3_@M@cv@@@std@@@std@@YAXPEAV?$Point3_@M@cv@@_KPEBV12@AEAU?$_Wrap_alloc@V?$allocator@V?$Point3_@M@cv@@@std@@@0@U?$integral_constant@_N$0A@@0@@Z
	??$_Uninitialized_copy_al_unchecked1@PEBU?$pair@HH@std@@PEAU12@V?$allocator@U?$pair@HH@std@@@2@@std@@YAPEAU?$pair@HH@0@PEBU10@0PEAU10@AEAU?$_Wrap_alloc@V?$allocator@U?$pair@HH@std@@@std@@@0@U_General_ptr_iterator_tag@0@U_Any_tag@0@@Z
	??$_Uninitialized_copy_al_unchecked1@PEBUPeak@human_pose_estimation@@PEAU12@V?$allocator@UPeak@human_pose_estimation@@@std@@@std@@YAPEAUPeak@human_pose_estimation@@PEBU12@0PEAU12@AEAU?$_Wrap_alloc@V?$allocator@UPeak@human_pose_estimation@@@std@@@0@U_General_ptr_iterator_tag@0@U_Any_tag@0@@Z
	??$_Uninitialized_copy_al_unchecked1@PEBV?$Point3_@M@cv@@PEAV12@V?$allocator@V?$Point3_@M@cv@@@std@@@std@@YAPEAV?$Point3_@M@cv@@PEBV12@0PEAV12@AEAU?$_Wrap_alloc@V?$allocator@V?$Point3_@M@cv@@@std@@@0@U_General_ptr_iterator_tag@0@U_Any_tag@0@@Z
	??$_Uninitialized_default_fill_n1@PEAV?$vector@UPeak@human_pose_estimation@@V?$allocator@UPeak@human_pose_estimation@@@std@@@std@@_KV?$allocator@V?$vector@UPeak@human_pose_estimation@@V?$allocator@UPeak@human_pose_estimation@@@std@@@std@@@2@@std@@YAXPEAV?$vector@UPeak@human_pose_estimation@@V?$allocator@UPeak@human_pose_estimation@@@std@@@0@_KAEAU?$_Wrap_alloc@V?$allocator@V?$vector@UPeak@human_pose_estimation@@V?$allocator@UPeak@human_pose_estimation@@@std@@@std@@@std@@@0@U?$integral_constant@_N$0A@@0@@Z
	??$_Uninitialized_default_fill_n1@PEAVMat@cv@@_KV?$allocator@VMat@cv@@@std@@@std@@YAXPEAVMat@cv@@_KAEAU?$_Wrap_alloc@V?$allocator@VMat@cv@@@std@@@0@U?$integral_constant@_N$0A@@0@@Z
	??$_Uninitialized_move_al_unchecked1@PEAUHumanPose@human_pose_estimation@@PEAU12@V?$allocator@UHumanPose@human_pose_estimation@@@std@@@std@@YAPEAUHumanPose@human_pose_estimation@@PEAU12@00AEAU?$_Wrap_alloc@V?$allocator@UHumanPose@human_pose_estimation@@@std@@@0@U_General_ptr_iterator_tag@0@U_Any_tag@0@@Z
	??$_Uninitialized_move_al_unchecked1@PEAUHumanPoseByPeaksIndices@human_pose_estimation@@PEAU12@V?$allocator@UHumanPoseByPeaksIndices@human_pose_estimation@@@std@@@std@@YAPEAUHumanPoseByPeaksIndices@human_pose_estimation@@PEAU12@00AEAU?$_Wrap_alloc@V?$allocator@UHumanPoseByPeaksIndices@human_pose_estimation@@@std@@@0@U_General_ptr_iterator_tag@0@U_Any_tag@0@@Z
	??$_Uninitialized_move_al_unchecked1@PEAUPeak@human_pose_estimation@@PEAU12@V?$allocator@UPeak@human_pose_estimation@@@std@@@std@@YAPEAUPeak@human_pose_estimation@@PEAU12@00AEAU?$_Wrap_alloc@V?$allocator@UPeak@human_pose_estimation@@@std@@@0@U_General_ptr_iterator_tag@0@U_Any_tag@0@@Z
	??$_Uninitialized_move_al_unchecked1@PEAUTwoJointsConnection@human_pose_estimation@@PEAU12@V?$allocator@UTwoJointsConnection@human_pose_estimation@@@std@@@std@@YAPEAUTwoJointsConnection@human_pose_estimation@@PEAU12@00AEAU?$_Wrap_alloc@V?$allocator@UTwoJointsConnection@human_pose_estimation@@@std@@@0@U_General_ptr_iterator_tag@0@U_Any_tag@0@@Z
	??$_Uninitialized_move_al_unchecked1@PEAV?$Point_@H@cv@@PEAV12@V?$allocator@V?$Point_@H@cv@@@std@@@std@@YAPEAV?$Point_@H@cv@@PEAV12@00AEAU?$_Wrap_alloc@V?$allocator@V?$Point_@H@cv@@@std@@@0@U_General_ptr_iterator_tag@0@U_Any_tag@0@@Z
	??0?$vector@HV?$allocator@H@std@@@std@@QEAA@AEBV01@@Z
	??0?$vector@V?$Point3_@M@cv@@V?$allocator@V?$Point3_@M@cv@@@std@@@std@@QEAA@AEBV01@@Z
	??0?$vector@V?$vector@UPeak@human_pose_estimation@@V?$allocator@UPeak@human_pose_estimation@@@std@@@std@@V?$allocator@V?$vector@UPeak@human_pose_estimation@@V?$allocator@UPeak@human_pose_estimation@@@std@@@std@@@2@@std@@QEAA@_K@Z
	??0?$vector@VMat@cv@@V?$allocator@VMat@cv@@@std@@@std@@QEAA@_K@Z
	??0HumanPose@human_pose_estimation@@QEAA@AEBV?$vector@V?$Point3_@M@cv@@V?$allocator@V?$Point3_@M@cv@@@std@@@std@@AEBM@Z
	??0HumanPoseByPeaksIndices@human_pose_estimation@@QEAA@H@Z
	??0Mat@cv@@QEAA@AEBV01@@Z
	??0Mat@cv@@QEAA@HHHPEAX_K@Z
	??0Peak@human_pose_estimation@@QEAA@HAEBV?$Point_@M@cv@@M@Z
	??0TwoJointsConnection@human_pose_estimation@@QEAA@HHM@Z
	??0exception@std@@QEAA@AEBV01@@Z
	??0runtime_error@std@@QEAA@AEBV01@@Z
	??1?$_Vb_val@V?$allocator@_N@std@@@std@@QEAA@XZ
	??1?$basic_string@DU?$char_traits@D@std@@V?$allocator@D@2@@std@@QEAA@XZ
	??1?$pair@VMat@cv@@V12@@std@@QEAA@XZ
	??1?$vector@HV?$allocator@H@std@@@std@@QEAA@XZ
	??1?$vector@U?$pair@HH@std@@V?$allocator@U?$pair@HH@std@@@2@@std@@QEAA@XZ
	??1?$vector@UHumanPose@human_pose_estimation@@V?$allocator@UHumanPose@human_pose_estimation@@@std@@@std@@QEAA@XZ
	??1?$vector@UHumanPoseByPeaksIndices@human_pose_estimation@@V?$allocator@UHumanPoseByPeaksIndices@human_pose_estimation@@@std@@@std@@QEAA@XZ
	??1?$vector@UPeak@human_pose_estimation@@V?$allocator@UPeak@human_pose_estimation@@@std@@@std@@QEAA@XZ
	??1?$vector@UTwoJointsConnection@human_pose_estimation@@V?$allocator@UTwoJointsConnection@human_pose_estimation@@@std@@@std@@QEAA@XZ
	??1?$vector@V?$Point3_@M@cv@@V?$allocator@V?$Point3_@M@cv@@@std@@@std@@QEAA@XZ
	??1?$vector@V?$Point_@H@cv@@V?$allocator@V?$Point_@H@cv@@@std@@@std@@QEAA@XZ
	??1?$vector@V?$vector@UPeak@human_pose_estimation@@V?$allocator@UPeak@human_pose_estimation@@@std@@@std@@V?$allocator@V?$vector@UPeak@human_pose_estimation@@V?$allocator@UPeak@human_pose_estimation@@@std@@@std@@@2@@std@@QEAA@XZ
	??1?$vector@VMat@cv@@V?$allocator@VMat@cv@@@std@@@std@@QEAA@XZ
	??1?$vector@_NV?$allocator@_N@std@@@std@@QEAA@XZ
	??1FindPeaksBody@human_pose_estimation@@UEAA@XZ
	??1HumanPose@human_pose_estimation@@QEAA@XZ
	??1HumanPoseByPeaksIndices@human_pose_estimation@@QEAA@XZ
	??1Mat@cv@@QEAA@XZ
	??1exception@std@@UEAA@XZ
	??1runtime_error@std@@UEAA@XZ
	??3@YAXPEAX0@Z
	??4?$vector@UHumanPoseByPeaksIndices@human_pose_estimation@@V?$allocator@UHumanPoseByPeaksIndices@human_pose_estimation@@@std@@@std@@QEAAAEAV01@$$QEAV01@@Z
	??4Mat@cv@@QEAAAEAV01@$$QEAV01@@Z
	??RFindPeaksBody@human_pose_estimation@@UEBAXAEBVRange@cv@@@Z
	?_Construct_n@?$vector@HV?$allocator@H@std@@@std@@QEAAX_KPEBH@Z
	?_Construct_n@?$vector@IV?$allocator@_N@std@@@std@@QEAAX_KPEBI@Z
	?_Construct_n@?$vector@UHumanPoseByPeaksIndices@human_pose_estimation@@V?$allocator@UHumanPoseByPeaksIndices@human_pose_estimation@@@std@@@std@@QEAAX_KPEBUHumanPoseByPeaksIndices@human_pose_estimation@@@Z
	?_Construct_n@?$vector@V?$Point3_@M@cv@@V?$allocator@V?$Point3_@M@cv@@@std@@@std@@QEAAX_KPEBV?$Point3_@M@cv@@@Z
	?_Copy@?$basic_string@DU?$char_traits@D@std@@V?$allocator@D@2@@std@@QEAAX_K0@Z
	?_Reallocate@?$vector@UHumanPose@human_pose_estimation@@V?$allocator@UHumanPose@human_pose_estimation@@@std@@@std@@IEAAX_K@Z
	?_Reallocate@?$vector@UHumanPoseByPeaksIndices@human_pose_estimation@@V?$allocator@UHumanPoseByPeaksIndices@human_pose_estimation@@@std@@@std@@IEAAX_K@Z
	?_Reallocate@?$vector@UPeak@human_pose_estimation@@V?$allocator@UPeak@human_pose_estimation@@@std@@@std@@IEAAX_K@Z
	?_Reallocate@?$vector@UTwoJointsConnection@human_pose_estimation@@V?$allocator@UTwoJointsConnection@human_pose_estimation@@@std@@@std@@IEAAX_K@Z
	?_Reallocate@?$vector@V?$Point_@H@cv@@V?$allocator@V?$Point_@H@cv@@@std@@@std@@IEAAX_K@Z
	?_Reserve@?$vector@UHumanPose@human_pose_estimation@@V?$allocator@UHumanPose@human_pose_estimation@@@std@@@std@@IEAAX_K@Z
	?_Reserve@?$vector@UHumanPoseByPeaksIndices@human_pose_estimation@@V?$allocator@UHumanPoseByPeaksIndices@human_pose_estimation@@@std@@@std@@IEAAX_K@Z
	?_Reserve@?$vector@UTwoJointsConnection@human_pose_estimation@@V?$allocator@UTwoJointsConnection@human_pose_estimation@@@std@@@std@@IEAAX_K@Z
	?_Tidy@?$vector@V?$vector@UPeak@human_pose_estimation@@V?$allocator@UPeak@human_pose_estimation@@@std@@@std@@V?$allocator@V?$vector@UPeak@human_pose_estimation@@V?$allocator@UPeak@human_pose_estimation@@@std@@@std@@@2@@std@@IEAAXXZ
	?_Tidy@?$vector@VMat@cv@@V?$allocator@VMat@cv@@@std@@@std@@IEAAXXZ
	?allocate@?$_Wrap_alloc@V?$allocator@D@std@@@std@@QEAAPEAD_K@Z
	?allocate@?$allocator@H@std@@QEAAPEAH_K@Z
	?allocate@?$allocator@I@std@@QEAAPEAI_K@Z
	?allocate@?$allocator@U?$pair@HH@std@@@std@@QEAAPEAU?$pair@HH@2@_K@Z
	?allocate@?$allocator@UHumanPose@human_pose_estimation@@@std@@QEAAPEAUHumanPose@human_pose_estimation@@_K@Z
	?allocate@?$allocator@UHumanPoseByPeaksIndices@human_pose_estimation@@@std@@QEAAPEAUHumanPoseByPeaksIndices@human_pose_estimation@@_K@Z
	?allocate@?$allocator@UPeak@human_pose_estimation@@@std@@QEAAPEAUPeak@human_pose_estimation@@_K@Z
	?allocate@?$allocator@UTwoJointsConnection@human_pose_estimation@@@std@@QEAAPEAUTwoJointsConnection@human_pose_estimation@@_K@Z
	?allocate@?$allocator@V?$Point3_@M@cv@@@std@@QEAAPEAV?$Point3_@M@cv@@_K@Z
	?allocate@?$allocator@V?$Point_@H@cv@@@std@@QEAAPEAV?$Point_@H@cv@@_K@Z
	?allocate@?$allocator@V?$vector@UPeak@human_pose_estimation@@V?$allocator@UPeak@human_pose_estimation@@@std@@@std@@@std@@QEAAPEAV?$vector@UPeak@human_pose_estimation@@V?$allocator@UPeak@human_pose_estimation@@@std@@@2@_K@Z
	?allocate@?$allocator@VMat@cv@@@std@@QEAAPEAVMat@cv@@_K@Z
	?assign@?$basic_string@DU?$char_traits@D@std@@V?$allocator@D@2@@std@@QEAAAEAV12@AEBV12@_K1@Z
	?assign@?$basic_string@DU?$char_traits@D@std@@V?$allocator@D@2@@std@@QEAAAEAV12@PEBD_K@Z
	?deallocate@?$allocator@H@std@@QEAAXPEAH_K@Z
	?deallocate@?$allocator@I@std@@QEAAXPEAI_K@Z
	?deallocate@?$allocator@U?$pair@HH@std@@@std@@QEAAXPEAU?$pair@HH@2@_K@Z
	?deallocate@?$allocator@UHumanPose@human_pose_estimation@@@std@@QEAAXPEAUHumanPose@human_pose_estimation@@_K@Z
	?deallocate@?$allocator@UHumanPoseByPeaksIndices@human_pose_estimation@@@std@@QEAAXPEAUHumanPoseByPeaksIndices@human_pose_estimation@@_K@Z
	?deallocate@?$allocator@UPeak@human_pose_estimation@@@std@@QEAAXPEAUPeak@human_pose_estimation@@_K@Z
	?deallocate@?$allocator@UTwoJointsConnection@human_pose_estimation@@@std@@QEAAXPEAUTwoJointsConnection@human_pose_estimation@@_K@Z
	?deallocate@?$allocator@V?$Point3_@M@cv@@@std@@QEAAXPEAV?$Point3_@M@cv@@_K@Z
	?deallocate@?$allocator@V?$Point_@H@cv@@@std@@QEAAXPEAV?$Point_@H@cv@@_K@Z
	?deallocate@?$allocator@V?$vector@UPeak@human_pose_estimation@@V?$allocator@UPeak@human_pose_estimation@@@std@@@std@@@std@@QEAAXPEAV?$vector@UPeak@human_pose_estimation@@V?$allocator@UPeak@human_pose_estimation@@@std@@@2@_K@Z
	?deallocate@?$allocator@VMat@cv@@@std@@QEAAXPEAVMat@cv@@_K@Z
	?erase@?$basic_string@DU?$char_traits@D@std@@V?$allocator@D@2@@std@@QEAAAEAV12@_K0@Z
	?extractPoses@human_pose_estimation@@YA?AV?$vector@UHumanPose@human_pose_estimation@@V?$allocator@UHumanPose@human_pose_estimation@@@std@@@std@@AEAV?$vector@VMat@cv@@V?$allocator@VMat@cv@@@std@@@3@0H@Z
	?findPeaks@human_pose_estimation@@YAXAEBV?$vector@VMat@cv@@V?$allocator@VMat@cv@@@std@@@std@@MAEAV?$vector@V?$vector@UPeak@human_pose_estimation@@V?$allocator@UPeak@human_pose_estimation@@@std@@@std@@V?$allocator@V?$vector@UPeak@human_pose_estimation@@V?$allocator@UPeak@human_pose_estimation@@@std@@@std@@@2@@3@H@Z
	?groupPeaksToPoses@human_pose_estimation@@YA?AV?$vector@UHumanPose@human_pose_estimation@@V?$allocator@UHumanPose@human_pose_estimation@@@std@@@std@@AEBV?$vector@V?$vector@UPeak@human_pose_estimation@@V?$allocator@UPeak@human_pose_estimation@@@std@@@std@@V?$allocator@V?$vector@UPeak@human_pose_estimation@@V?$allocator@UPeak@human_pose_estimation@@@std@@@std@@@2@@3@AEBV?$vector@VMat@cv@@V?$allocator@VMat@cv@@@std@@@3@_KMMHM@Z
	?push_back@?$vector@UHumanPose@human_pose_estimation@@V?$allocator@UHumanPose@human_pose_estimation@@@std@@@std@@QEAAXAEBUHumanPose@human_pose_estimation@@@Z
	?push_back@?$vector@UHumanPoseByPeaksIndices@human_pose_estimation@@V?$allocator@UHumanPoseByPeaksIndices@human_pose_estimation@@@std@@@std@@QEAAXAEBUHumanPoseByPeaksIndices@human_pose_estimation@@@Z
	?push_back@?$vector@UTwoJointsConnection@human_pose_estimation@@V?$allocator@UTwoJointsConnection@human_pose_estimation@@@std@@@std@@QEAAX$$QEAUTwoJointsConnection@human_pose_estimation@@@Z
	?release@Mat@cv@@QEAAXXZ
	?total@Mat@cv@@QEBA_KXZ
	?what@exception@std@@UEBAPEBDXZ
	PyInit_pose_extractor
